; ModuleID = '27/1956.c'
source_filename = "27/1956.c"
target datalayout = "e-m:e-p270:32:32-p271:32:32-p272:64:64-i64:64-f80:128-n8:16:32:64-S128"
target triple = "x86_64-pc-linux-gnu"

@.str = private unnamed_addr constant [3 x i8] c"%d\00", align 1
@.str.1 = private unnamed_addr constant [12 x i8] c"%lf %lf %lf\00", align 1
@.str.2 = private unnamed_addr constant [19 x i8] c"x1=%.5lf;x2=%.5lf\0A\00", align 1
@.str.3 = private unnamed_addr constant [13 x i8] c"x1=x2=%.5lf\0A\00", align 1
@.str.4 = private unnamed_addr constant [35 x i8] c"x1=-%.5lf+%.5lfi;x2=-%.5lf-%.5lfi\0A\00", align 1

; Function Attrs: noinline nounwind uwtable
define dso_local void @main() #0 {
  %1 = alloca i32, align 4
  %2 = alloca i32, align 4
  %3 = alloca double, align 8
  %4 = alloca double, align 8
  %5 = alloca double, align 8
  %6 = alloca double, align 8
  %7 = alloca double, align 8
  %8 = alloca double, align 8
  %9 = alloca double, align 8
  %10 = call i32 (i8*, ...) @__isoc99_scanf(i8* getelementptr inbounds ([3 x i8], [3 x i8]* @.str, i64 0, i64 0), i32* %2)
  store i32 0, i32* %1, align 4
  br label %11

11:                                               ; preds = %83, %0
  %12 = load i32, i32* %1, align 4
  %13 = load i32, i32* %2, align 4
  %14 = icmp slt i32 %12, %13
  br i1 %14, label %15, label %86

15:                                               ; preds = %11
  %16 = call i32 (i8*, ...) @__isoc99_scanf(i8* getelementptr inbounds ([12 x i8], [12 x i8]* @.str.1, i64 0, i64 0), double* %3, double* %4, double* %5)
  %17 = load double, double* %4, align 8
  %18 = load double, double* %4, align 8
  %19 = fmul double %17, %18
  %20 = load double, double* %3, align 8
  %21 = fmul double 4.000000e+00, %20
  %22 = load double, double* %5, align 8
  %23 = fmul double %21, %22
  %24 = fsub double %19, %23
  store double %24, double* %6, align 8
  %25 = load double, double* %6, align 8
  %26 = fcmp ogt double %25, 0.000000e+00
  br i1 %26, label %27, label %47

27:                                               ; preds = %15
  %28 = load double, double* %4, align 8
  %29 = fneg double %28
  %30 = load double, double* %6, align 8
  %31 = call double @sqrt(double %30) #3
  %32 = fadd double %29, %31
  %33 = load double, double* %3, align 8
  %34 = fmul double 2.000000e+00, %33
  %35 = fdiv double %32, %34
  store double %35, double* %7, align 8
  %36 = load double, double* %4, align 8
  %37 = fneg double %36
  %38 = load double, double* %6, align 8
  %39 = call double @sqrt(double %38) #3
  %40 = fsub double %37, %39
  %41 = load double, double* %3, align 8
  %42 = fmul double 2.000000e+00, %41
  %43 = fdiv double %40, %42
  store double %43, double* %8, align 8
  %44 = load double, double* %7, align 8
  %45 = load double, double* %8, align 8
  %46 = call i32 (i8*, ...) @printf(i8* getelementptr inbounds ([19 x i8], [19 x i8]* @.str.2, i64 0, i64 0), double %44, double %45)
  br label %47

47:                                               ; preds = %27, %15
  %48 = load double, double* %6, align 8
  %49 = fcmp oeq double %48, 0.000000e+00
  br i1 %49, label %50, label %58

50:                                               ; preds = %47
  %51 = load double, double* %4, align 8
  %52 = fneg double %51
  %53 = load double, double* %3, align 8
  %54 = fmul double 2.000000e+00, %53
  %55 = fdiv double %52, %54
  store double %55, double* %7, align 8
  %56 = load double, double* %7, align 8
  %57 = call i32 (i8*, ...) @printf(i8* getelementptr inbounds ([13 x i8], [13 x i8]* @.str.3, i64 0, i64 0), double %56)
  br label %58

58:                                               ; preds = %50, %47
  %59 = load double, double* %6, align 8
  %60 = fcmp olt double %59, 0.000000e+00
  br i1 %60, label %61, label %82

61:                                               ; preds = %58
  %62 = load double, double* %6, align 8
  %63 = fneg double %62
  %64 = call double @sqrt(double %63) #3
  store double %64, double* %9, align 8
  %65 = load double, double* %4, align 8
  %66 = load double, double* %3, align 8
  %67 = fmul double 2.000000e+00, %66
  %68 = fdiv double %65, %67
  %69 = load double, double* %9, align 8
  %70 = load double, double* %3, align 8
  %71 = fmul double 2.000000e+00, %70
  %72 = fdiv double %69, %71
  %73 = load double, double* %4, align 8
  %74 = load double, double* %3, align 8
  %75 = fmul double 2.000000e+00, %74
  %76 = fdiv double %73, %75
  %77 = load double, double* %9, align 8
  %78 = load double, double* %3, align 8
  %79 = fmul double 2.000000e+00, %78
  %80 = fdiv double %77, %79
  %81 = call i32 (i8*, ...) @printf(i8* getelementptr inbounds ([35 x i8], [35 x i8]* @.str.4, i64 0, i64 0), double %68, double %72, double %76, double %80)
  br label %82

82:                                               ; preds = %61, %58
  br label %83

83:                                               ; preds = %82
  %84 = load i32, i32* %1, align 4
  %85 = add nsw i32 %84, 1
  store i32 %85, i32* %1, align 4
  br label %11

86:                                               ; preds = %11
  ret void
}

declare dso_local i32 @__isoc99_scanf(i8*, ...) #1

; Function Attrs: nounwind
declare dso_local double @sqrt(double) #2

declare dso_local i32 @printf(i8*, ...) #1


!llvm.module.flags = !{!0}
!llvm.ident = !{!1}

!0 = !{i32 1, !"wchar_size", i32 4}
!1 = !{!"clang version 10.0.0-4ubuntu1 "}
